target datalayout = "e-m:e-p270:32:32-p271:32:32-p272:64:64-i64:64-i128:128-f80:128-n8:16:32:64-S128"
target triple = "x86_64-pc-linux-gnu"

%struct.ThreadList = type { ptr }
%struct.ThreadNode = type { ptr, i16, i32, ptr, i32, i32, %struct.StepRequest, %struct.InvokeRequest, ptr, %struct.CoLocatedEventInfo_, ptr, ptr, i64, ptr }
%struct.StepRequest = type { i32, i32, i8, i8, i8, i32, i32, ptr, ptr, i32, ptr, ptr, ptr, ptr }
%struct.InvokeRequest = type { i8, i8, i8, i8, i32, i8, i8, ptr, ptr, ptr, ptr, i32, ptr, %union.jvalue, ptr }
%union.jvalue = type { i64 }
%struct.CoLocatedEventInfo_ = type { i32, ptr, ptr, i64 }

@runningThreads = internal global %struct.ThreadList zeroinitializer, align 8
@runningVThreads = internal global %struct.ThreadList zeroinitializer, align 8
@threadLock = internal global ptr null, align 8

; Function Attrs: nounwind uwtable
define internal ptr @findRunningThread(ptr noundef %0) #0 {
  %2 = alloca ptr, align 8
  %3 = alloca ptr, align 8
  store ptr %0, ptr %2, align 8
  %4 = load ptr, ptr %2, align 8
  %5 = call zeroext i8 @isVThread(ptr noundef %4)
  %6 = icmp ne i8 %5, 0
  br i1 %6, label %7, label %10

7:                                                ; preds = %1
  %8 = load ptr, ptr %2, align 8
  %9 = call ptr @findThread(ptr noundef @runningVThreads, ptr noundef %8)
  store ptr %9, ptr %3, align 8
  br label %13

10:                                               ; preds = %1
  %11 = load ptr, ptr %2, align 8
  %12 = call ptr @findThread(ptr noundef @runningThreads, ptr noundef %11)
  store ptr %12, ptr %3, align 8
  br label %13

13:                                               ; preds = %10, %7
  %14 = load ptr, ptr %3, align 8
  ret ptr %14
}

; Function Attrs: nounwind uwtable
define hidden void @threadControl_saveCLEInfo(ptr noundef %0, ptr noundef %1, i32 noundef %2, ptr noundef %3, ptr noundef %4, i64 noundef %5) #0 {
  %7 = alloca ptr, align 8
  %8 = alloca ptr, align 8
  %9 = alloca i32, align 4
  %10 = alloca ptr, align 8
  %11 = alloca ptr, align 8
  %12 = alloca i64, align 8
  %13 = alloca ptr, align 8
  store ptr %0, ptr %7, align 8
  store ptr %1, ptr %8, align 8
  store i32 %2, ptr %9, align 4
  store ptr %3, ptr %10, align 8
  store ptr %4, ptr %11, align 8
  store i64 %5, ptr %12, align 8
  %14 = load ptr, ptr @threadLock, align 8
  call void @debugMonitorEnter(ptr noundef %14)
  %15 = load ptr, ptr %8, align 8
  %16 = call ptr @findRunningThread(ptr noundef %15)
  store ptr %16, ptr %13, align 8
  %17 = load ptr, ptr %13, align 8
  %18 = icmp ne ptr %17, null
  br i1 %18, label %19, label %37

19:                                               ; preds = %6
  %20 = load i32, ptr %9, align 4
  %21 = load ptr, ptr %13, align 8
  %22 = getelementptr inbounds %struct.ThreadNode, ptr %21, i32 0, i32 9
  %23 = getelementptr inbounds %struct.CoLocatedEventInfo_, ptr %22, i32 0, i32 0
  store i32 %20, ptr %23, align 8
  %24 = load ptr, ptr %7, align 8
  %25 = load ptr, ptr %10, align 8
  %26 = load ptr, ptr %13, align 8
  %27 = getelementptr inbounds %struct.ThreadNode, ptr %26, i32 0, i32 9
  %28 = getelementptr inbounds %struct.CoLocatedEventInfo_, ptr %27, i32 0, i32 1
  call void @saveGlobalRef(ptr noundef %24, ptr noundef %25, ptr noundef %28)
  %29 = load ptr, ptr %11, align 8
  %30 = load ptr, ptr %13, align 8
  %31 = getelementptr inbounds %struct.ThreadNode, ptr %30, i32 0, i32 9
  %32 = getelementptr inbounds %struct.CoLocatedEventInfo_, ptr %31, i32 0, i32 2
  store ptr %29, ptr %32, align 8
  %33 = load i64, ptr %12, align 8
  %34 = load ptr, ptr %13, align 8
  %35 = getelementptr inbounds %struct.ThreadNode, ptr %34, i32 0, i32 9
  %36 = getelementptr inbounds %struct.CoLocatedEventInfo_, ptr %35, i32 0, i32 3
  store i64 %33, ptr %36, align 8
  br label %37

37:                                               ; preds = %19, %6
  %38 = load ptr, ptr @threadLock, align 8
  call void @debugMonitorExit(ptr noundef %38)
  ret void
}