; Function Attrs: nounwind uwtable
define hidden void @threadControl_saveCLEInfo(ptr noundef %0, ptr noundef %1, i32 noundef %2, ptr noundef %3, ptr noundef %4, i64 noundef %5) local_unnamed_addr #0 {
  %7 = load ptr, ptr @threadLock, align 8
  tail call void @debugMonitorEnter(ptr noundef %7) #6
  %8 = tail call zeroext i8 @isVThread(ptr noundef %1) #6
  %.not.i = icmp eq i8 %8, 0
  %runningThreads.runningVThreads.i = select i1 %.not.i, ptr @runningThreads, ptr @runningVThreads
  %9 = tail call fastcc ptr @findThread(ptr noundef nonnull %runningThreads.runningVThreads.i, ptr noundef %1)
  %.not = icmp eq ptr %9, null
  br i1 %.not, label %15, label %10

10:                                               ; preds = %6
  %11 = getelementptr inbounds i8, ptr %9, i64 200
  store i32 %2, ptr %11, align 8
  %12 = getelementptr inbounds i8, ptr %9, i64 208
  tail call void @saveGlobalRef(ptr noundef %0, ptr noundef %3, ptr noundef nonnull %12) #6
  %13 = getelementptr inbounds i8, ptr %9, i64 216
  store ptr %4, ptr %13, align 8
  %14 = getelementptr inbounds i8, ptr %9, i64 224
  store i64 %5, ptr %14, align 8
  br label %15

15:                                               ; preds = %10, %6
  %16 = load ptr, ptr @threadLock, align 8
  tail call void @debugMonitorExit(ptr noundef %16) #6
  ret void
}